; Function Attrs: mustprogress uwtable
define noundef nonnull align 8 dereferenceable(8) ptr @_ZN6icu_77lsERSoRKNS_13UnicodeStringE(ptr noundef nonnull returned align 8 dereferenceable(8) %0, ptr noundef nonnull align 8 dereferenceable(64) %1) local_unnamed_addr #3 {
  %3 = alloca [200 x i8], align 16
  %4 = alloca i32, align 4
  %5 = alloca ptr, align 8
  %6 = alloca ptr, align 8
  %7 = getelementptr inbounds nuw i8, ptr %1, i64 8
  %8 = load i16, ptr %7, align 8, !tbaa !3
  %9 = icmp slt i16 %8, 0
  %10 = ashr i16 %8, 5
  %11 = sext i16 %10 to i32
  %12 = getelementptr inbounds nuw i8, ptr %1, i64 12
  %13 = load i32, ptr %12, align 4
  %14 = select i1 %9, i32 %13, i32 %11
  %15 = icmp sgt i32 %14, 0
  br i1 %15, label %16, label %50

16:                                               ; preds = %2
  call void @llvm.lifetime.start.p0(i64 200, ptr nonnull %3) #7
  call void @llvm.lifetime.start.p0(i64 4, ptr nonnull %4) #7
  store i32 0, ptr %4, align 4, !tbaa !6
  %17 = call ptr @u_getDefaultConverter_77(ptr noundef nonnull %4)
  %18 = load i32, ptr %4, align 4, !tbaa !6
  %19 = icmp sgt i32 %18, 0
  br i1 %19, label %49, label %20

20:                                               ; preds = %16
  call void @llvm.lifetime.start.p0(i64 8, ptr nonnull %5) #7
  %21 = load i16, ptr %7, align 8, !tbaa !3
  %22 = and i16 %21, 17
  %.not.i = icmp eq i16 %22, 0
  br i1 %.not.i, label %23, label %_ZNK6icu_7713UnicodeString9getBufferEv.exit

23:                                               ; preds = %20
  %24 = and i16 %21, 2
  %.not2.i = icmp eq i16 %24, 0
  br i1 %.not2.i, label %27, label %25

25:                                               ; preds = %23
  %26 = getelementptr inbounds nuw i8, ptr %1, i64 10
  br label %_ZNK6icu_7713UnicodeString9getBufferEv.exit

27:                                               ; preds = %23
  %28 = getelementptr inbounds nuw i8, ptr %1, i64 24
  %29 = load ptr, ptr %28, align 8, !tbaa !3
  br label %_ZNK6icu_7713UnicodeString9getBufferEv.exit

_ZNK6icu_7713UnicodeString9getBufferEv.exit:      ; preds = %20, %25, %27
  %.0.i = phi ptr [ %26, %25 ], [ %29, %27 ], [ null, %20 ]
  store ptr %.0.i, ptr %5, align 8, !tbaa !8
  %30 = icmp slt i16 %21, 0
  %31 = ashr i16 %21, 5
  %32 = sext i16 %31 to i32
  %33 = load i32, ptr %12, align 4
  %34 = select i1 %30, i32 %33, i32 %32
  %35 = sext i32 %34 to i64
  %36 = getelementptr inbounds i16, ptr %.0.i, i64 %35
  call void @llvm.lifetime.start.p0(i64 8, ptr nonnull %6) #7
  %37 = getelementptr inbounds nuw i8, ptr %3, i64 199
  br label %38

38:                                               ; preds = %45, %_ZNK6icu_7713UnicodeString9getBufferEv.exit
  store i32 0, ptr %4, align 4, !tbaa !6
  store ptr %3, ptr %6, align 8, !tbaa !11
  call void @ucnv_fromUnicode_77(ptr noundef %17, ptr noundef nonnull %6, ptr noundef nonnull %37, ptr noundef nonnull %5, ptr noundef %36, ptr noundef null, i8 noundef signext 0, ptr noundef nonnull %4)
  %39 = load ptr, ptr %6, align 8, !tbaa !11
  store i8 0, ptr %39, align 1, !tbaa !3
  %40 = load ptr, ptr %6, align 8, !tbaa !11
  %41 = icmp ugt ptr %40, %3
  br i1 %41, label %42, label %45

42:                                               ; preds = %38
  %43 = call noundef i64 @strlen(ptr noundef nonnull dereferenceable(1) %3) #7
  %44 = call noundef nonnull align 8 dereferenceable(8) ptr @_ZSt16__ostream_insertIcSt11char_traitsIcEERSt13basic_ostreamIT_T0_ES6_PKS3_l(ptr noundef nonnull align 8 dereferenceable(8) %0, ptr noundef nonnull %3, i64 noundef %43)
  br label %45

45:                                               ; preds = %38, %42
  %46 = load i32, ptr %4, align 4, !tbaa !6
  %47 = icmp eq i32 %46, 15
  br i1 %47, label %38, label %48, !llvm.loop !13

48:                                               ; preds = %45
  call void @u_releaseDefaultConverter_77(ptr noundef %17)
  call void @llvm.lifetime.end.p0(i64 8, ptr nonnull %6) #7
  call void @llvm.lifetime.end.p0(i64 8, ptr nonnull %5) #7
  br label %49

49:                                               ; preds = %48, %16
  call void @llvm.lifetime.end.p0(i64 4, ptr nonnull %4) #7
  call void @llvm.lifetime.end.p0(i64 200, ptr nonnull %3) #7
  br label %50

50:                                               ; preds = %49, %2
  ret ptr %0
}